target datalayout = "e-m:e-p270:32:32-p271:32:32-p272:64:64-i64:64-i128:128-f80:128-n8:16:32:64-S128"
target triple = "x86_64-pc-linux-gnu"

%struct.ggml_type_traits = type { ptr, i64, i64, i64, i8, ptr, ptr }

; Function Attrs: nounwind uwtable
define double @ggml_type_sizef(i32 noundef %0) #5 {
  %2 = alloca i32, align 4
  store i32 %0, ptr %2, align 4, !tbaa !8
  %3 = load i32, ptr %2, align 4, !tbaa !8
  %4 = zext i32 %3 to i64
  %5 = getelementptr inbounds nuw [39 x %struct.ggml_type_traits], ptr @type_traits, i64 0, i64 %4
  %6 = getelementptr inbounds nuw %struct.ggml_type_traits, ptr %5, i32 0, i32 3
  %7 = load i64, ptr %6, align 8, !tbaa !63
  %8 = uitofp i64 %7 to double
  %9 = load i32, ptr %2, align 4, !tbaa !8
  %10 = zext i32 %9 to i64
  %11 = getelementptr inbounds nuw [39 x %struct.ggml_type_traits], ptr @type_traits, i64 0, i64 %10
  %12 = getelementptr inbounds nuw %struct.ggml_type_traits, ptr %11, i32 0, i32 1
  %13 = load i64, ptr %12, align 8, !tbaa !61
  %14 = sitofp i64 %13 to double
  %15 = fdiv double %8, %14
  ret double %15
}