; Function Attrs: mustprogress nofree norecurse nosync nounwind willreturn memory(none) uwtable
define double @ggml_type_sizef(i32 noundef %0) local_unnamed_addr #9 {
  %2 = zext i32 %0 to i64
  %3 = getelementptr inbounds nuw [39 x %struct.ggml_type_traits], ptr @type_traits, i64 0, i64 %2
  %4 = getelementptr inbounds nuw i8, ptr %3, i64 24
  %5 = load i64, ptr %4, align 8, !tbaa !47
  %6 = uitofp i64 %5 to double
  %7 = getelementptr inbounds nuw i8, ptr %3, i64 8
  %8 = load i64, ptr %7, align 8, !tbaa !44
  %9 = sitofp i64 %8 to double
  %10 = fdiv double %6, %9
  ret double %10
}